     1                                  section .rodata
     2 00000000 2020207261783A2000          l3: db  '   rax: ',0;
     3 00000009 303030313032303330-       l4: db  '000102030405060708090A0B0C0D0E0F101112131415161718191A1B1C1D1E1F202122232425262728292A2B2C2D2E2F303132333435363738393A3B3C3D3E3F404142434445464748494A4B4C4D4E4F505152535455565758595A5B5C5D5E5F606162636465666768696A6B6C6D6E6F70717273747576777879
     3 00000012 343035303630373038-
     3 0000001B 303930413042304330-
     3 00000024 443045304631303131-
     3 0000002D 313231333134313531-
     3 00000036 363137313831393141-
     3 0000003F 314231433144314531-
     3 00000048 463230323132323233-
     3 00000051 323432353236323732-
     3 0000005A 383239324132423243-
     3 00000063 324432453246333033-
     3 0000006C 313332333333343335-
     3 00000075 333633373338333933-
     3 0000007E 413342334333443345-
     3 00000087 334634303431343234-
     3 00000090 333434343534363437-
     3 00000099 343834393441344234-
     3 000000A2 433444344534463530-
     3 000000AB 353135323533353435-
     3 000000B4 353536353735383539-
     3 000000BD 354135423543354435-
     3 000000C6 453546363036313632-
     3 000000CF 363336343635363636-
     3 000000D8 373638363936413642-
     3 000000E1 364336443645364637-
     3 000000EA 303731373237333734-
     3 000000F3 373537363737373837-
     3 000000FC 393741374237433744-
     3 00000105 374537463830383138-
     3 0000010E 323833383438353836-
     3 00000117 383738383839384138-
     3 00000120 423843384438453846-
     3 00000129 393039313932393339-
     3 00000132 343935393639373938-
     3 0000013B 393939413942394339-
     3 00000144 443945394641304131-
     3 0000014D 413241334134413541-
     3 00000156 364137413841394141-
     3 0000015F 414241434144414541-
     3 00000168 464230423142324233-
     3 00000171 423442354236423742-
     3 0000017A 384239424142424243-
     3 00000183 424442454246433043-
     3 0000018C 314332433343344335-
     3 00000195 433643374338433943-
     3 0000019E 414342434343444345-
     3 000001A7 434644304431443244-
     3 000001B0 334434443544364437-
     3 000001B9 443844394441444244-
     3 000001C2 434444444544464530-
     3 000001CB 453145324533453445-
     3 000001D4 354536453745384539-
     3 000001DD 454145424543454445-
     3 000001E6 454546463046314632-
     3 000001EF 463346344635463646-
     3 000001F8 374638463946414642-
     3 00000201 464346444645464600 
     4 0000020A 2000                      l9: db  ' ',0;
     5 0000020C 0A                        l10: db 10
     6                                  section .data
     7                                    
     8                                  section .bss
     9                                    
    10                                  section .text
    11                                  global _start, main
    12                                    _start:
    13                                    main:
    14 00000000 55                        push rbp     ; function prologue
    15 00000001 4889E5                    mov  rbp,rsp
    16 00000004 B802000000                      mov rax, 2
    17                                  ; Print register rax in Hex
    18 00000009 E9C4010000                    jmp l2
    19                                    l1:
    20 0000000E 50                            push rax
    21 0000000F 57                            push rdi
    22 00000010 56                            push rsi
    23 00000011 52                            push rdx
    24                                  ; Write String:    rax:
    25 00000012 B801000000                    mov rax, 1
    26 00000017 BF01000000                    mov rdi, 1
    27 0000001C 48BE-                         mov rsi, l3
    27 0000001E [0000000000000000] 
    28 00000026 BA08000000                    mov rdx, 8
    29 0000002B 0F05                          syscall
    30 0000002D 5A                            pop rdx
    31 0000002E 5E                            pop rsi
    32 0000002F 5F                            pop rdi
    33 00000030 58                            pop rax
    34 00000031 50                            push rax
    35 00000032 50                            push rax
    36 00000033 58                            pop rax
    37                                  ; Print Rax In Hex
    38 00000034 E967010000                    jmp l6
    39                                    l5:
    40 00000039 50                            push rax
    41 0000003A 57                            push rdi
    42 0000003B 56                            push rsi
    43 0000003C 52                            push rdx
    44 0000003D 4889C2                        mov rdx, rax
    45 00000040 BF02000000                    mov rdi, 2
    46 00000045 4889D0                        mov rax, rdx
    47 00000048 48C1E000                      shl rax, 0
    48 0000004C 48C1E838                      shr rax, 56
    49 00000050 48D1E0                        shl rax, 1
    50 00000053 488D80[09000000]              lea rax, [l4+rax]
    51 0000005A EB1B                          jmp l8
    52                                    l7:
    53                                  ; Print memory
    54 0000005C 50                            push rax
    55 0000005D 57                            push rdi
    56 0000005E 56                            push rsi
    57 0000005F 52                            push rdx
    58 00000060 4889C6                        mov rsi, rax
    59 00000063 4889FA                        mov rdx, rdi
    60 00000066 B801000000                    mov rax, 1
    61 0000006B BF01000000                    mov rdi, 1
    62 00000070 0F05                          syscall
    63 00000072 5A                            pop rdx
    64 00000073 5E                            pop rsi
    65 00000074 5F                            pop rdi
    66 00000075 58                            pop rax
    67 00000076 C3                            ret
    68                                    l8:
    69 00000077 E8E0FFFFFF                    call l7
    70 0000007C 4889D0                        mov rax, rdx
    71 0000007F 48C1E008                      shl rax, 8
    72 00000083 48C1E838                      shr rax, 56
    73 00000087 48D1E0                        shl rax, 1
    74 0000008A 488D80[09000000]              lea rax, [l4+rax]
    75 00000091 E8C6FFFFFF                    call l7
    76 00000096 50                            push rax
    77 00000097 57                            push rdi
    78 00000098 56                            push rsi
    79 00000099 52                            push rdx
    80                                  ; Write String:
    81 0000009A B801000000                    mov rax, 1
    82 0000009F BF01000000                    mov rdi, 1
    83 000000A4 48BE-                         mov rsi, l9
    83 000000A6 [0A02000000000000] 
    84 000000AE BA01000000                    mov rdx, 1
    85 000000B3 0F05                          syscall
    86 000000B5 5A                            pop rdx
    87 000000B6 5E                            pop rsi
    88 000000B7 5F                            pop rdi
    89 000000B8 58                            pop rax
    90 000000B9 4889D0                        mov rax, rdx
    91 000000BC 48C1E010                      shl rax, 16
    92 000000C0 48C1E838                      shr rax, 56
    93 000000C4 48D1E0                        shl rax, 1
    94 000000C7 488D80[09000000]              lea rax, [l4+rax]
    95 000000CE E889FFFFFF                    call l7
    96 000000D3 4889D0                        mov rax, rdx
    97 000000D6 48C1E018                      shl rax, 24
    98 000000DA 48C1E838                      shr rax, 56
    99 000000DE 48D1E0                        shl rax, 1
   100 000000E1 488D80[09000000]              lea rax, [l4+rax]
   101 000000E8 E86FFFFFFF                    call l7
   102 000000ED 50                            push rax
   103 000000EE 57                            push rdi
   104 000000EF 56                            push rsi
   105 000000F0 52                            push rdx
   106                                  ; Write String:
   107 000000F1 B801000000                    mov rax, 1
   108 000000F6 BF01000000                    mov rdi, 1
   109 000000FB 48BE-                         mov rsi, l9
   109 000000FD [0A02000000000000] 
   110 00000105 BA01000000                    mov rdx, 1
   111 0000010A 0F05                          syscall
   112 0000010C 5A                            pop rdx
   113 0000010D 5E                            pop rsi
   114 0000010E 5F                            pop rdi
   115 0000010F 58                            pop rax
   116 00000110 4889D0                        mov rax, rdx
   117 00000113 48C1E020                      shl rax, 32
   118 00000117 48C1E838                      shr rax, 56
   119 0000011B 48D1E0                        shl rax, 1
   120 0000011E 488D80[09000000]              lea rax, [l4+rax]
   121 00000125 E832FFFFFF                    call l7
   122 0000012A 4889D0                        mov rax, rdx
   123 0000012D 48C1E028                      shl rax, 40
   124 00000131 48C1E838                      shr rax, 56
   125 00000135 48D1E0                        shl rax, 1
   126 00000138 488D80[09000000]              lea rax, [l4+rax]
   127 0000013F E818FFFFFF                    call l7
   128 00000144 50                            push rax
   129 00000145 57                            push rdi
   130 00000146 56                            push rsi
   131 00000147 52                            push rdx
   132                                  ; Write String:
   133 00000148 B801000000                    mov rax, 1
   134 0000014D BF01000000                    mov rdi, 1
   135 00000152 48BE-                         mov rsi, l9
   135 00000154 [0A02000000000000] 
   136 0000015C BA01000000                    mov rdx, 1
   137 00000161 0F05                          syscall
   138 00000163 5A                            pop rdx
   139 00000164 5E                            pop rsi
   140 00000165 5F                            pop rdi
   141 00000166 58                            pop rax
   142 00000167 4889D0                        mov rax, rdx
   143 0000016A 48C1E030                      shl rax, 48
   144 0000016E 48C1E838                      shr rax, 56
   145 00000172 48D1E0                        shl rax, 1
   146 00000175 488D80[09000000]              lea rax, [l4+rax]
   147 0000017C E8DBFEFFFF                    call l7
   148 00000181 4889D0                        mov rax, rdx
   149 00000184 48C1E038                      shl rax, 56
   150 00000188 48C1E838                      shr rax, 56
   151 0000018C 48D1E0                        shl rax, 1
   152 0000018F 488D80[09000000]              lea rax, [l4+rax]
   153 00000196 E8C1FEFFFF                    call l7
   154 0000019B 5A                            pop rdx
   155 0000019C 5E                            pop rsi
   156 0000019D 5F                            pop rdi
   157 0000019E 58                            pop rax
   158 0000019F C3                            ret
   159                                    l6:
   160 000001A0 E894FEFFFF                    call l5
   161 000001A5 58                            pop rax
   162                                  ; Write new line
   163 000001A6 EB24                          jmp l12
   164                                    l11:
   165 000001A8 50                            push rax
   166 000001A9 57                            push rdi
   167 000001AA 56                            push rsi
   168 000001AB 52                            push rdx
   169 000001AC B801000000                    mov rax, 1
   170 000001B1 BF01000000                    mov rdi, 1
   171 000001B6 48BE-                         mov rsi, l10
   171 000001B8 [0C02000000000000] 
   172 000001C0 BA01000000                    mov rdx, 1
   173 000001C5 0F05                          syscall
   174 000001C7 5A                            pop rdx
   175 000001C8 5E                            pop rsi
   176 000001C9 5F                            pop rdi
   177 000001CA 58                            pop rax
   178 000001CB C3                            ret
   179                                    l12:
   180 000001CC E8D7FFFFFF                    call l11
   181 000001D1 C3                            ret
   182                                    l2:
   183 000001D2 E837FEFFFF                    call l1
   184                                  ; Exit code: 0
   185 000001D7 BF00000000                    mov rdi, 0
   186 000001DC B83C000000                    mov rax, 60
   187 000001E1 0F05                          syscall
